target datalayout = "e-m:e-p270:32:32-p271:32:32-p272:64:64-i64:64-i128:128-f80:128-n8:16:32:64-S128"
target triple = "x86_64-pc-linux-gnu"

%struct._RsvgRectangle = type { double, double, double, double }
%struct._RsvgDimensionData = type { i32, i32, double, double }

@__const.dt_get_svg_dimension.viewport = private unnamed_addr constant %struct._RsvgRectangle { double 0.000000e+00, double 0.000000e+00, double 3.276700e+04, double 3.276700e+04 }, align 8

; Function Attrs: nounwind uwtable
define void @dt_get_svg_dimension(ptr dead_on_unwind noalias writable sret(%struct._RsvgDimensionData) align 8 %0, ptr noundef %1) #0 {
  %3 = alloca ptr, align 8
  %4 = alloca double, align 8
  %5 = alloca double, align 8
  %6 = alloca %struct._RsvgRectangle, align 8
  %7 = alloca %struct._RsvgRectangle, align 8
  store ptr %1, ptr %3, align 8, !tbaa !51
  call void @llvm.lifetime.start.p0(i64 8, ptr %4) #18
  call void @llvm.lifetime.start.p0(i64 8, ptr %5) #18
  %8 = load ptr, ptr %3, align 8, !tbaa !51
  %9 = call i32 @rsvg_handle_get_intrinsic_size_in_pixels(ptr noundef %8, ptr noundef %4, ptr noundef %5)
  %10 = icmp ne i32 %9, 0
  br i1 %10, label %11, label %20

11:                                               ; preds = %2
  %12 = load double, ptr %4, align 8, !tbaa !19
  %13 = call i64 @llvm.lround.i64.f64(double %12)
  %14 = trunc i64 %13 to i32
  %15 = getelementptr inbounds nuw %struct._RsvgDimensionData, ptr %0, i32 0, i32 0
  store i32 %14, ptr %15, align 8, !tbaa !93
  %16 = load double, ptr %5, align 8, !tbaa !19
  %17 = call i64 @llvm.lround.i64.f64(double %16)
  %18 = trunc i64 %17 to i32
  %19 = getelementptr inbounds nuw %struct._RsvgDimensionData, ptr %0, i32 0, i32 1
  store i32 %18, ptr %19, align 4, !tbaa !95
  br label %33

20:                                               ; preds = %2
  call void @llvm.lifetime.start.p0(i64 32, ptr %6) #18
  call void @llvm.memcpy.p0.p0.i64(ptr align 8 %6, ptr align 8 @__const.dt_get_svg_dimension.viewport, i64 32, i1 false)
  call void @llvm.lifetime.start.p0(i64 32, ptr %7) #18
  %21 = load ptr, ptr %3, align 8, !tbaa !51
  %22 = call i32 @rsvg_handle_get_geometry_for_layer(ptr noundef %21, ptr noundef null, ptr noundef %6, ptr noundef null, ptr noundef %7, ptr noundef null)
  %23 = getelementptr inbounds nuw %struct._RsvgRectangle, ptr %7, i32 0, i32 2
  %24 = load double, ptr %23, align 8, !tbaa !111
  %25 = call i64 @llvm.lround.i64.f64(double %24)
  %26 = trunc i64 %25 to i32
  %27 = getelementptr inbounds nuw %struct._RsvgDimensionData, ptr %0, i32 0, i32 0
  store i32 %26, ptr %27, align 8, !tbaa !93
  %28 = getelementptr inbounds nuw %struct._RsvgRectangle, ptr %7, i32 0, i32 3
  %29 = load double, ptr %28, align 8, !tbaa !113
  %30 = call i64 @llvm.lround.i64.f64(double %29)
  %31 = trunc i64 %30 to i32
  %32 = getelementptr inbounds nuw %struct._RsvgDimensionData, ptr %0, i32 0, i32 1
  store i32 %31, ptr %32, align 4, !tbaa !95
  call void @llvm.lifetime.end.p0(i64 32, ptr %7) #18
  call void @llvm.lifetime.end.p0(i64 32, ptr %6) #18
  br label %33

33:                                               ; preds = %20, %11
  call void @llvm.lifetime.end.p0(i64 8, ptr %5) #18
  call void @llvm.lifetime.end.p0(i64 8, ptr %4) #18
  ret void
}