; Function Attrs: nounwind uwtable
define void @dt_get_svg_dimension(ptr dead_on_unwind noalias writable writeonly sret(%struct._RsvgDimensionData) align 8 captures(none) initializes((0, 8)) %0, ptr noundef %1) local_unnamed_addr #0 {
  %3 = alloca double, align 8
  %4 = alloca double, align 8
  %5 = alloca %struct._RsvgRectangle, align 8
  %6 = alloca %struct._RsvgRectangle, align 8
  call void @llvm.lifetime.start.p0(i64 8, ptr nonnull %3) #27
  call void @llvm.lifetime.start.p0(i64 8, ptr nonnull %4) #27
  %7 = call i32 @rsvg_handle_get_intrinsic_size_in_pixels(ptr noundef %1, ptr noundef nonnull %3, ptr noundef nonnull %4) #27
  %.not = icmp eq i32 %7, 0
  br i1 %.not, label %13, label %8

8:                                                ; preds = %2
  %9 = load double, ptr %3, align 8, !tbaa !37
  %10 = call i64 @llvm.lround.i64.f64(double %9)
  %11 = load double, ptr %4, align 8, !tbaa !37
  %12 = call i64 @llvm.lround.i64.f64(double %11)
  br label %21

13:                                               ; preds = %2
  call void @llvm.lifetime.start.p0(i64 32, ptr nonnull %5) #27
  call void @llvm.memcpy.p0.p0.i64(ptr noundef nonnull align 8 dereferenceable(32) %5, ptr noundef nonnull align 8 dereferenceable(32) @__const.dt_get_svg_dimension.viewport, i64 32, i1 false)
  call void @llvm.lifetime.start.p0(i64 32, ptr nonnull %6) #27
  %14 = call i32 @rsvg_handle_get_geometry_for_layer(ptr noundef %1, ptr noundef null, ptr noundef nonnull %5, ptr noundef null, ptr noundef nonnull %6, ptr noundef null) #27
  %15 = getelementptr inbounds nuw i8, ptr %6, i64 16
  %16 = load double, ptr %15, align 8, !tbaa !39
  %17 = call i64 @llvm.lround.i64.f64(double %16)
  %18 = getelementptr inbounds nuw i8, ptr %6, i64 24
  %19 = load double, ptr %18, align 8, !tbaa !41
  %20 = call i64 @llvm.lround.i64.f64(double %19)
  call void @llvm.lifetime.end.p0(i64 32, ptr nonnull %6) #27
  call void @llvm.lifetime.end.p0(i64 32, ptr nonnull %5) #27
  br label %21

21:                                               ; preds = %13, %8
  %.sink2.in = phi i64 [ %17, %13 ], [ %10, %8 ]
  %.sink.in = phi i64 [ %20, %13 ], [ %12, %8 ]
  %.sink = trunc i64 %.sink.in to i32
  %.sink2 = trunc i64 %.sink2.in to i32
  store i32 %.sink2, ptr %0, align 8, !tbaa !91
  %22 = getelementptr inbounds nuw i8, ptr %0, i64 4
  store i32 %.sink, ptr %22, align 4, !tbaa !93
  call void @llvm.lifetime.end.p0(i64 8, ptr nonnull %4) #27
  call void @llvm.lifetime.end.p0(i64 8, ptr nonnull %3) #27
  ret void
}